Certificate:
    Data:
        Version: 3 (0x2)
        Serial Number: 3 (0x3)
        Signature Algorithm: sha256WithRSAEncryption
        Issuer: C=US, ST=California, O=M2Crypto, CN=Heikki Toivonen
        Validity
            Not Before: Oct  7 15:12:02 2018 GMT
            Not After : Oct  4 15:12:02 2028 GMT
        Subject: C=US, ST=California, O=M2Crypto, CN=Signer/emailAddress=signer@example.com
        Subject Public Key Info:
            Public Key Algorithm: rsaEncryption
                RSA Public-Key: (2048 bit)
                Modulus:
                    00:c8:85:86:3d:72:aa:91:d8:7b:11:02:05:92:b7:
                    1b:bf:9f:35:be:88:56:db:96:f2:70:3e:98:3c:c3:
                    62:42:ff:54:74:7a:63:e7:a9:4c:ae:52:48:a2:4f:
                    ab:c5:6b:1d:de:39:b8:f0:89:36:15:f7:70:3d:a8:
                    a6:c3:49:3e:10:d8:ae:ba:cf:1a:e6:dd:0b:d8:cd:
                    d9:00:ea:57:f2:7c:2e:6d:89:80:95:68:b1:fd:06:
                    bc:ea:ba:44:c1:fa:20:87:57:d3:ac:e5:b4:5d:ba:
                    4f:10:20:82:5b:1b:27:75:b3:0c:ce:4f:79:3f:49:
                    8e:e3:ba:14:30:cf:8a:82:11:65:59:78:7b:41:16:
                    43:e8:ea:7f:a4:60:52:46:93:53:4e:de:87:3f:50:
                    8a:56:c5:d3:04:5c:3c:a2:d3:b0:64:d8:ce:1e:75:
                    ad:ce:cd:91:b1:58:cc:2d:a6:dc:da:b5:b2:c2:0e:
                    2f:68:74:a7:a5:6e:61:4c:01:f2:d0:7d:83:66:78:
                    66:9f:b9:87:33:cc:59:dc:03:82:6f:bb:98:0c:e9:
                    10:63:12:ee:e9:05:c1:5b:98:7e:94:65:98:df:31:
                    bf:59:90:f0:1c:6c:ac:2c:1b:dd:90:71:ab:11:95:
                    8b:9c:f7:2a:2f:c0:0f:2d:b1:c8:5a:65:d6:a9:34:
                    44:81
                Exponent: 65537 (0x10001)
        X509v3 extensions:
            X509v3 Basic Constraints: 
                CA:FALSE
            X509v3 Subject Key Identifier: 
                68:03:33:27:D9:87:9A:EA:7D:41:D8:2D:EB:F9:EE:AB:C9:6A:C5:FA
    Signature Algorithm: sha256WithRSAEncryption
         47:27:62:6d:43:f3:f6:87:0a:8f:1f:f1:4b:2b:67:05:11:85:
         b1:13:69:ca:de:1e:6f:8f:78:ae:b5:b7:75:ca:84:f3:58:26:
         9d:c5:0b:0e:4c:e9:ce:1c:5d:69:03:6e:d7:2e:88:28:75:78:
         c5:54:37:e6:70:4f:8f:92:fb:5f:ce:c2:b3:a3:74:77:e6:c3:
         94:ab:c6:d2:69:bb:dd:d8:16:9d:36:2a:d1:c1:e1:0d:81:da:
         96:9f:f1:ae:a4:b9:73:16:b1:98:b5:f9:6a:4c:8b:08:30:c3:
         d6:31:3a:79:e2:ef:7f:db:4f:6f:13:f8:98:d6:b2:04:72:c3:
         03:b2:ff:63:ad:ce:4e:8d:95:37:a6:dc:52:5e:5c:26:35:9f:
         14:7e:9d:a0:04:46:00:ff:52:94:f1:2b:75:1c:52:f0:79:eb:
         41:a8:39:a2:5a:63:cc:de:70:cd:82:72:77:1d:77:e1:3d:ff:
         38:86:2d:12:4f:ab:4c:72:35:69:4f:ad:55:1d:da:ae:9d:0a:
         23:4a:cc:2a:40:d8:4e:f5:bd:33:4c:eb:b7:47:41:82:2a:c9:
         fc:64:0d:33:76:00:61:ba:b6:40:ca:24:96:5e:84:d5:4f:d2:
         4d:2e:7a:31:a5:50:53:ba:eb:31:7b:78:9f:f4:43:f1:e5:54:
         4f:59:dc:ba
-----BEGIN CERTIFICATE-----
MIIDXzCCAkegAwIBAgIBAzANBgkqhkiG9w0BAQsFADBPMQswCQYDVQQGEwJVUzET
MBEGA1UECAwKQ2FsaWZvcm5pYTERMA8GA1UECgwITTJDcnlwdG8xGDAWBgNVBAMM
D0hlaWtraSBUb2l2b25lbjAeFw0xODEwMDcxNTEyMDJaFw0yODEwMDQxNTEyMDJa
MGkxCzAJBgNVBAYTAlVTMRMwEQYDVQQIDApDYWxpZm9ybmlhMREwDwYDVQQKDAhN
MkNyeXB0bzEPMA0GA1UEAwwGU2lnbmVyMSEwHwYJKoZIhvcNAQkBFhJzaWduZXJA
ZXhhbXBsZS5jb20wggEiMA0GCSqGSIb3DQEBAQUAA4IBDwAwggEKAoIBAQDIhYY9
cqqR2HsRAgWStxu/nzW+iFbblvJwPpg8w2JC/1R0emPnqUyuUkiiT6vFax3eObjw
iTYV93A9qKbDST4Q2K66zxrm3QvYzdkA6lfyfC5tiYCVaLH9BrzqukTB+iCHV9Os
5bRduk8QIIJbGyd1swzOT3k/SY7juhQwz4qCEWVZeHtBFkPo6n+kYFJGk1NO3oc/
UIpWxdMEXDyi07Bk2M4eda3OzZGxWMwtptzatbLCDi9odKelbmFMAfLQfYNmeGaf
uYczzFncA4Jvu5gM6RBjEu7pBcFbmH6UZZjfMb9ZkPAcbKwsG92QcasRlYuc9yov
wA8tschaZdapNESBAgMBAAGjLDAqMAkGA1UdEwQCMAAwHQYDVR0OBBYEFGgDMyfZ
h5rqfUHYLev57qvJasX6MA0GCSqGSIb3DQEBCwUAA4IBAQBHJ2JtQ/P2hwqPH/FL
K2cFEYWxE2nK3h5vj3iutbd1yoTzWCadxQsOTOnOHF1pA27XLogodXjFVDfmcE+P
kvtfzsKzo3R35sOUq8bSabvd2BadNirRweENgdqWn/GupLlzFrGYtflqTIsIMMPW
MTp54u9/209vE/iY1rIEcsMDsv9jrc5OjZU3ptxSXlwmNZ8Ufp2gBEYA/1KU8St1
HFLweetBqDmiWmPM3nDNgnJ3HXfhPf84hi0ST6tMcjVpT61VHdqunQojSswqQNhO
9b0zTOu3R0GCKsn8ZA0zdgBhurZAyiSWXoTVT9JNLnoxpVBTuusxe3if9EPx5VRP
Wdy6
-----END CERTIFICATE-----
